target datalayout = "e-m:e-p270:32:32-p271:32:32-p272:64:64-i64:64-i128:128-f80:128-n8:16:32:64-S128"
target triple = "x86_64-unknown-linux-gnu"

%"class.boost::detail::shared_count" = type { ptr }
%"class.std::unique_ptr" = type { %"struct.std::__uniq_ptr_data" }
%"struct.std::__uniq_ptr_data" = type { %"class.std::__uniq_ptr_impl" }
%"class.std::__uniq_ptr_impl" = type { %"class.std::tuple" }
%"class.std::tuple" = type { %"struct.std::_Tuple_impl" }
%"struct.std::_Tuple_impl" = type { %"struct.std::_Head_base.7" }
%"struct.std::_Head_base.7" = type { ptr }
%"class.QuantLib::TripleBandLinearOp" = type { %"class.QuantLib::FdmLinearOp", i64, %"class.std::unique_ptr.31", %"class.std::unique_ptr.31", %"class.std::unique_ptr.31", %"class.std::unique_ptr", %"class.std::unique_ptr", %"class.std::unique_ptr", %"class.boost::shared_ptr.39" }
%"class.QuantLib::FdmLinearOp" = type { ptr }
%"class.std::unique_ptr.31" = type { %"struct.std::__uniq_ptr_data.32" }
%"struct.std::__uniq_ptr_data.32" = type { %"class.std::__uniq_ptr_impl.33" }
%"class.std::__uniq_ptr_impl.33" = type { %"class.std::tuple.34" }
%"class.std::tuple.34" = type { %"struct.std::_Tuple_impl.35" }
%"struct.std::_Tuple_impl.35" = type { %"struct.std::_Head_base.38" }
%"struct.std::_Head_base.38" = type { ptr }
%"class.boost::shared_ptr.39" = type { ptr, %"class.boost::detail::shared_count" }
%"class.QuantLib::FdmCIREquityPart" = type { %"class.QuantLib::FirstDerivativeOp", %"class.QuantLib::TripleBandLinearOp", %"class.QuantLib::TripleBandLinearOp", %"class.boost::shared_ptr.39", %"class.boost::shared_ptr.40", double, %"class.boost::shared_ptr.41" }
%"class.QuantLib::FirstDerivativeOp" = type { %"class.QuantLib::TripleBandLinearOp" }
%"class.boost::shared_ptr.40" = type { ptr, %"class.boost::detail::shared_count" }
%"class.boost::shared_ptr.41" = type { ptr, %"class.boost::detail::shared_count" }
%"class.QuantLib::FdmCIRRatesPart" = type { %"class.QuantLib::TripleBandLinearOp", %"class.QuantLib::TripleBandLinearOp", %"class.boost::shared_ptr.39" }
%"class.QuantLib::NinePointLinearOp" = type { %"class.QuantLib::FdmLinearOp", i64, i64, %"class.std::unique_ptr.31", %"class.std::unique_ptr.31", %"class.std::unique_ptr.31", %"class.std::unique_ptr.31", %"class.std::unique_ptr.31", %"class.std::unique_ptr.31", %"class.std::unique_ptr.31", %"class.std::unique_ptr.31", %"class.std::unique_ptr", %"class.std::unique_ptr", %"class.std::unique_ptr", %"class.std::unique_ptr", %"class.std::unique_ptr", %"class.std::unique_ptr", %"class.std::unique_ptr", %"class.std::unique_ptr", %"class.std::unique_ptr", %"class.boost::shared_ptr.39" }
%"class.QuantLib::FdmCIRMixedPart" = type { %"class.QuantLib::NinePointLinearOp", %"class.QuantLib::NinePointLinearOp", %"class.boost::shared_ptr.39", %"class.boost::shared_ptr.41", double }
%"class.QuantLib::FdmCIROp" = type { %"class.QuantLib::FdmLinearOpComposite", %"class.QuantLib::FdmCIREquityPart", %"class.QuantLib::FdmCIRRatesPart", %"class.QuantLib::FdmCIRMixedPart" }
%"class.QuantLib::FdmLinearOpComposite" = type { %"class.QuantLib::FdmLinearOp" }

; Function Attrs: mustprogress uwtable
define void @_ZN8QuantLib8FdmCIROp7setTimeEdd(ptr noundef nonnull align 8 dereferenceable(872) %this, double noundef %t1, double noundef %t2) unnamed_addr #7 align 2 {
entry:
  %this.addr = alloca ptr, align 8
  %t1.addr = alloca double, align 8
  %t2.addr = alloca double, align 8
  store ptr %this, ptr %this.addr, align 8, !tbaa !3
  store double %t1, ptr %t1.addr, align 8, !tbaa !11
  store double %t2, ptr %t2.addr, align 8, !tbaa !11
  %this1 = load ptr, ptr %this.addr, align 8
  %dxMap_ = getelementptr inbounds nuw %"class.QuantLib::FdmCIROp", ptr %this1, i32 0, i32 1
  %0 = load double, ptr %t1.addr, align 8, !tbaa !11
  %1 = load double, ptr %t2.addr, align 8, !tbaa !11
  call void @_ZN8QuantLib16FdmCIREquityPart7setTimeEdd(ptr noundef nonnull align 8 dereferenceable(296) %dxMap_, double noundef %0, double noundef %1)
  %dyMap_ = getelementptr inbounds nuw %"class.QuantLib::FdmCIROp", ptr %this1, i32 0, i32 2
  %2 = load double, ptr %t1.addr, align 8, !tbaa !11
  %3 = load double, ptr %t2.addr, align 8, !tbaa !11
  call void @_ZN8QuantLib15FdmCIRRatesPart7setTimeEdd(ptr noundef nonnull align 8 dereferenceable(176) %dyMap_, double noundef %2, double noundef %3)
  %dzMap_ = getelementptr inbounds nuw %"class.QuantLib::FdmCIROp", ptr %this1, i32 0, i32 3
  %4 = load double, ptr %t1.addr, align 8, !tbaa !11
  %5 = load double, ptr %t2.addr, align 8, !tbaa !11
  call void @_ZN8QuantLib15FdmCIRMixedPart7setTimeEdd(ptr noundef nonnull align 8 dereferenceable(392) %dzMap_, double noundef %4, double noundef %5)
  ret void
}