; Function Attrs: mustprogress uwtable
define void @_ZN8QuantLib8FdmCIROp7setTimeEdd(ptr noundef nonnull align 8 dereferenceable(872) %this, double noundef %t1, double noundef %t2) unnamed_addr #6 align 2 {
entry:
  %dxMap_ = getelementptr inbounds nuw i8, ptr %this, i64 8
  tail call void @_ZN8QuantLib16FdmCIREquityPart7setTimeEdd(ptr noundef nonnull align 8 dereferenceable(296) %dxMap_, double noundef %t1, double noundef %t2)
  %dyMap_ = getelementptr inbounds nuw i8, ptr %this, i64 304
  tail call void @_ZN8QuantLib15FdmCIRRatesPart7setTimeEdd(ptr noundef nonnull align 8 dereferenceable(176) %dyMap_, double poison, double poison)
  %dzMap_ = getelementptr inbounds nuw i8, ptr %this, i64 480
  tail call void @_ZN8QuantLib15FdmCIRMixedPart7setTimeEdd(ptr noundef nonnull align 8 dereferenceable(392) %dzMap_, double noundef %t1, double noundef %t2)
  ret void
}